target datalayout = "e-m:e-p270:32:32-p271:32:32-p272:64:64-i64:64-i128:128-f80:128-n8:16:32:64-S128"
target triple = "x86_64-pc-linux-gnu"

%struct.stb_vorbis = type { i32, i32, i32, i32, i32, ptr, i32, ptr, ptr, i32, i32, ptr, ptr, ptr, i32, i8, i32, %struct.ProbedPage, %struct.ProbedPage, %struct.stb_vorbis_alloc, i32, i32, i32, i32, [2 x i32], i32, i32, i32, ptr, i32, [64 x i16], ptr, i32, [64 x i16], ptr, i32, ptr, i32, [64 x %struct.Mode], i32, [16 x ptr], [16 x ptr], [16 x ptr], i32, [16 x ptr], i32, i32, [2 x ptr], [2 x ptr], [2 x ptr], [2 x ptr], [2 x ptr], i32, i32, i32, [255 x i8], i8, i8, i8, i32, i32, i32, i32, i32, i32, i32, i32, i32, i32, i32, [4 x %struct.CRCscan], i32, i32 }
%struct.ProbedPage = type { i32, i32, i32 }
%struct.stb_vorbis_alloc = type { ptr, i32 }
%struct.Mode = type { i8, i8, i16, i16 }
%struct.CRCscan = type { i32, i32, i32, i32, i32 }
%struct.Mapping = type { i16, ptr, i8, [15 x i8], [15 x i8] }
%struct.MappingChannel = type { i8, i8, i8 }
%union.Floor = type { %struct.Floor1 }
%struct.Floor1 = type { i8, [32 x i8], [16 x i8], [16 x i8], [16 x i8], [16 x [8 x i16]], [250 x i16], [250 x i8], [250 x [2 x i8]], i8, i8, i32 }

; Function Attrs: inlinehint nounwind uwtable
define available_externally void @draw_line(ptr noundef %0, i32 noundef %1, i32 noundef %2, i32 noundef %3, i32 noundef %4, i32 noundef %5) #9 {
  %7 = alloca ptr, align 8
  %8 = alloca i32, align 4
  %9 = alloca i32, align 4
  %10 = alloca i32, align 4
  %11 = alloca i32, align 4
  %12 = alloca i32, align 4
  %13 = alloca i32, align 4
  %14 = alloca i32, align 4
  %15 = alloca i32, align 4
  %16 = alloca i32, align 4
  %17 = alloca i32, align 4
  %18 = alloca i32, align 4
  %19 = alloca i32, align 4
  %20 = alloca i32, align 4
  store ptr %0, ptr %7, align 8, !tbaa !58
  store i32 %1, ptr %8, align 4, !tbaa !8
  store i32 %2, ptr %9, align 4, !tbaa !8
  store i32 %3, ptr %10, align 4, !tbaa !8
  store i32 %4, ptr %11, align 4, !tbaa !8
  store i32 %5, ptr %12, align 4, !tbaa !8
  call void @llvm.lifetime.start.p0(i64 4, ptr %13) #11
  %21 = load i32, ptr %11, align 4, !tbaa !8
  %22 = load i32, ptr %9, align 4, !tbaa !8
  %23 = sub nsw i32 %21, %22
  store i32 %23, ptr %13, align 4, !tbaa !8
  call void @llvm.lifetime.start.p0(i64 4, ptr %14) #11
  %24 = load i32, ptr %10, align 4, !tbaa !8
  %25 = load i32, ptr %8, align 4, !tbaa !8
  %26 = sub nsw i32 %24, %25
  store i32 %26, ptr %14, align 4, !tbaa !8
  call void @llvm.lifetime.start.p0(i64 4, ptr %15) #11
  %27 = load i32, ptr %13, align 4, !tbaa !8
  %28 = call i32 @llvm.abs.i32(i32 %27, i1 true)
  store i32 %28, ptr %15, align 4, !tbaa !8
  call void @llvm.lifetime.start.p0(i64 4, ptr %16) #11
  call void @llvm.lifetime.start.p0(i64 4, ptr %17) #11
  %29 = load i32, ptr %8, align 4, !tbaa !8
  store i32 %29, ptr %17, align 4, !tbaa !8
  call void @llvm.lifetime.start.p0(i64 4, ptr %18) #11
  %30 = load i32, ptr %9, align 4, !tbaa !8
  store i32 %30, ptr %18, align 4, !tbaa !8
  call void @llvm.lifetime.start.p0(i64 4, ptr %19) #11
  store i32 0, ptr %19, align 4, !tbaa !8
  call void @llvm.lifetime.start.p0(i64 4, ptr %20) #11
  %31 = load i32, ptr %13, align 4, !tbaa !8
  %32 = load i32, ptr %14, align 4, !tbaa !8
  %33 = sdiv i32 %31, %32
  store i32 %33, ptr %16, align 4, !tbaa !8
  %34 = load i32, ptr %13, align 4, !tbaa !8
  %35 = icmp slt i32 %34, 0
  br i1 %35, label %36, label %39

36:                                               ; preds = %6
  %37 = load i32, ptr %16, align 4, !tbaa !8
  %38 = sub nsw i32 %37, 1
  store i32 %38, ptr %20, align 4, !tbaa !8
  br label %42

39:                                               ; preds = %6
  %40 = load i32, ptr %16, align 4, !tbaa !8
  %41 = add nsw i32 %40, 1
  store i32 %41, ptr %20, align 4, !tbaa !8
  br label %42

42:                                               ; preds = %39, %36
  %43 = load i32, ptr %16, align 4, !tbaa !8
  %44 = call i32 @llvm.abs.i32(i32 %43, i1 true)
  %45 = load i32, ptr %14, align 4, !tbaa !8
  %46 = mul nsw i32 %44, %45
  %47 = load i32, ptr %15, align 4, !tbaa !8
  %48 = sub nsw i32 %47, %46
  store i32 %48, ptr %15, align 4, !tbaa !8
  %49 = load i32, ptr %10, align 4, !tbaa !8
  %50 = load i32, ptr %12, align 4, !tbaa !8
  %51 = icmp sgt i32 %49, %50
  br i1 %51, label %52, label %54

52:                                               ; preds = %42
  %53 = load i32, ptr %12, align 4, !tbaa !8
  store i32 %53, ptr %10, align 4, !tbaa !8
  br label %54

54:                                               ; preds = %52, %42
  %55 = load i32, ptr %17, align 4, !tbaa !8
  %56 = load i32, ptr %10, align 4, !tbaa !8
  %57 = icmp slt i32 %55, %56
  br i1 %57, label %58, label %110

58:                                               ; preds = %54
  %59 = load i32, ptr %18, align 4, !tbaa !8
  %60 = and i32 %59, 255
  %61 = sext i32 %60 to i64
  %62 = getelementptr inbounds [256 x float], ptr @inverse_db_table, i64 0, i64 %61
  %63 = load float, ptr %62, align 4, !tbaa !28
  %64 = load ptr, ptr %7, align 8, !tbaa !58
  %65 = load i32, ptr %17, align 4, !tbaa !8
  %66 = sext i32 %65 to i64
  %67 = getelementptr inbounds float, ptr %64, i64 %66
  %68 = load float, ptr %67, align 4, !tbaa !28
  %69 = fmul float %68, %63
  store float %69, ptr %67, align 4, !tbaa !28
  %70 = load i32, ptr %17, align 4, !tbaa !8
  %71 = add nsw i32 %70, 1
  store i32 %71, ptr %17, align 4, !tbaa !8
  br label %72

72:                                               ; preds = %106, %58
  %73 = load i32, ptr %17, align 4, !tbaa !8
  %74 = load i32, ptr %10, align 4, !tbaa !8
  %75 = icmp slt i32 %73, %74
  br i1 %75, label %76, label %109

76:                                               ; preds = %72
  %77 = load i32, ptr %15, align 4, !tbaa !8
  %78 = load i32, ptr %19, align 4, !tbaa !8
  %79 = add nsw i32 %78, %77
  store i32 %79, ptr %19, align 4, !tbaa !8
  %80 = load i32, ptr %19, align 4, !tbaa !8
  %81 = load i32, ptr %14, align 4, !tbaa !8
  %82 = icmp sge i32 %80, %81
  br i1 %82, label %83, label %90

83:                                               ; preds = %76
  %84 = load i32, ptr %14, align 4, !tbaa !8
  %85 = load i32, ptr %19, align 4, !tbaa !8
  %86 = sub nsw i32 %85, %84
  store i32 %86, ptr %19, align 4, !tbaa !8
  %87 = load i32, ptr %20, align 4, !tbaa !8
  %88 = load i32, ptr %18, align 4, !tbaa !8
  %89 = add nsw i32 %88, %87
  store i32 %89, ptr %18, align 4, !tbaa !8
  br label %94

90:                                               ; preds = %76
  %91 = load i32, ptr %16, align 4, !tbaa !8
  %92 = load i32, ptr %18, align 4, !tbaa !8
  %93 = add nsw i32 %92, %91
  store i32 %93, ptr %18, align 4, !tbaa !8
  br label %94

94:                                               ; preds = %90, %83
  %95 = load i32, ptr %18, align 4, !tbaa !8
  %96 = and i32 %95, 255
  %97 = sext i32 %96 to i64
  %98 = getelementptr inbounds [256 x float], ptr @inverse_db_table, i64 0, i64 %97
  %99 = load float, ptr %98, align 4, !tbaa !28
  %100 = load ptr, ptr %7, align 8, !tbaa !58
  %101 = load i32, ptr %17, align 4, !tbaa !8
  %102 = sext i32 %101 to i64
  %103 = getelementptr inbounds float, ptr %100, i64 %102
  %104 = load float, ptr %103, align 4, !tbaa !28
  %105 = fmul float %104, %99
  store float %105, ptr %103, align 4, !tbaa !28
  br label %106

106:                                              ; preds = %94
  %107 = load i32, ptr %17, align 4, !tbaa !8
  %108 = add nsw i32 %107, 1
  store i32 %108, ptr %17, align 4, !tbaa !8
  br label %72, !llvm.loop !166

109:                                              ; preds = %72
  br label %110

110:                                              ; preds = %109, %54
  call void @llvm.lifetime.end.p0(i64 4, ptr %20) #11
  call void @llvm.lifetime.end.p0(i64 4, ptr %19) #11
  call void @llvm.lifetime.end.p0(i64 4, ptr %18) #11
  call void @llvm.lifetime.end.p0(i64 4, ptr %17) #11
  call void @llvm.lifetime.end.p0(i64 4, ptr %16) #11
  call void @llvm.lifetime.end.p0(i64 4, ptr %15) #11
  call void @llvm.lifetime.end.p0(i64 4, ptr %14) #11
  call void @llvm.lifetime.end.p0(i64 4, ptr %13) #11
  ret void
}

; Function Attrs: nounwind uwtable
define i32 @error(ptr noundef %0, i32 noundef %1) #0 {
  %3 = alloca ptr, align 8
  %4 = alloca i32, align 4
  store ptr %0, ptr %3, align 8, !tbaa !3
  store i32 %1, ptr %4, align 4, !tbaa !8
  %5 = load i32, ptr %4, align 4, !tbaa !8
  %6 = load ptr, ptr %3, align 8, !tbaa !3
  %7 = getelementptr inbounds nuw %struct.stb_vorbis, ptr %6, i32 0, i32 23
  store i32 %5, ptr %7, align 4, !tbaa !10
  %8 = load ptr, ptr %3, align 8, !tbaa !3
  %9 = getelementptr inbounds nuw %struct.stb_vorbis, ptr %8, i32 0, i32 22
  %10 = load i32, ptr %9, align 8, !tbaa !17
  %11 = icmp ne i32 %10, 0
  br i1 %11, label %19, label %12

12:                                               ; preds = %2
  %13 = load i32, ptr %4, align 4, !tbaa !8
  %14 = icmp ne i32 %13, 1
  br i1 %14, label %15, label %19

15:                                               ; preds = %12
  %16 = load i32, ptr %4, align 4, !tbaa !8
  %17 = load ptr, ptr %3, align 8, !tbaa !3
  %18 = getelementptr inbounds nuw %struct.stb_vorbis, ptr %17, i32 0, i32 23
  store i32 %16, ptr %18, align 4, !tbaa !10
  br label %19

19:                                               ; preds = %15, %12, %2
  ret i32 0
}

; Function Attrs: nounwind uwtable
define i32 @do_floor(ptr noundef %0, ptr noundef %1, i32 noundef %2, i32 noundef %3, ptr noundef %4, ptr noundef %5, ptr noundef %6) #0 {
  %8 = alloca i32, align 4
  %9 = alloca ptr, align 8
  %10 = alloca ptr, align 8
  %11 = alloca i32, align 4
  %12 = alloca i32, align 4
  %13 = alloca ptr, align 8
  %14 = alloca ptr, align 8
  %15 = alloca ptr, align 8
  %16 = alloca i32, align 4
  %17 = alloca i32, align 4
  %18 = alloca i32, align 4
  %19 = alloca i32, align 4
  %20 = alloca ptr, align 8
  %21 = alloca i32, align 4
  %22 = alloca i32, align 4
  %23 = alloca i32, align 4
  %24 = alloca i32, align 4
  %25 = alloca i32, align 4
  %26 = alloca i32, align 4
  store ptr %0, ptr %9, align 8, !tbaa !3
  store ptr %1, ptr %10, align 8, !tbaa !18
  store i32 %2, ptr %11, align 4, !tbaa !8
  store i32 %3, ptr %12, align 4, !tbaa !8
  store ptr %4, ptr %13, align 8, !tbaa !58
  store ptr %5, ptr %14, align 8, !tbaa !62
  store ptr %6, ptr %15, align 8, !tbaa !19
  call void @llvm.lifetime.start.p0(i64 4, ptr %16) #11
  %27 = load i32, ptr %12, align 4, !tbaa !8
  %28 = ashr i32 %27, 1
  store i32 %28, ptr %16, align 4, !tbaa !8
  call void @llvm.lifetime.start.p0(i64 4, ptr %17) #11
  %29 = load ptr, ptr %10, align 8, !tbaa !18
  %30 = getelementptr inbounds nuw %struct.Mapping, ptr %29, i32 0, i32 1
  %31 = load ptr, ptr %30, align 8, !tbaa !156
  %32 = load i32, ptr %11, align 4, !tbaa !8
  %33 = sext i32 %32 to i64
  %34 = getelementptr inbounds %struct.MappingChannel, ptr %31, i64 %33
  %35 = getelementptr inbounds nuw %struct.MappingChannel, ptr %34, i32 0, i32 2
  %36 = load i8, ptr %35, align 1, !tbaa !158
  %37 = zext i8 %36 to i32
  store i32 %37, ptr %17, align 4, !tbaa !8
  call void @llvm.lifetime.start.p0(i64 4, ptr %18) #11
  %38 = load ptr, ptr %10, align 8, !tbaa !18
  %39 = getelementptr inbounds nuw %struct.Mapping, ptr %38, i32 0, i32 3
  %40 = load i32, ptr %17, align 4, !tbaa !8
  %41 = sext i32 %40 to i64
  %42 = getelementptr inbounds [15 x i8], ptr %39, i64 0, i64 %41
  %43 = load i8, ptr %42, align 1, !tbaa !30
  %44 = zext i8 %43 to i32
  store i32 %44, ptr %18, align 4, !tbaa !8
  %45 = load ptr, ptr %9, align 8, !tbaa !3
  %46 = getelementptr inbounds nuw %struct.stb_vorbis, ptr %45, i32 0, i32 30
  %47 = load i32, ptr %18, align 4, !tbaa !8
  %48 = sext i32 %47 to i64
  %49 = getelementptr inbounds [64 x i16], ptr %46, i64 0, i64 %48
  %50 = load i16, ptr %49, align 2, !tbaa !45
  %51 = zext i16 %50 to i32
  %52 = icmp eq i32 %51, 0
  br i1 %52, label %53, label %56

53:                                               ; preds = %7
  %54 = load ptr, ptr %9, align 8, !tbaa !3
  %55 = call i32 @error(ptr noundef %54, i32 noundef 21)
  store i32 %55, ptr %8, align 4
  store i32 1, ptr %19, align 4
  br label %156

56:                                               ; preds = %7
  call void @llvm.lifetime.start.p0(i64 8, ptr %20) #11
  %57 = load ptr, ptr %9, align 8, !tbaa !3
  %58 = getelementptr inbounds nuw %struct.stb_vorbis, ptr %57, i32 0, i32 31
  %59 = load ptr, ptr %58, align 8, !tbaa !160
  %60 = load i32, ptr %18, align 4, !tbaa !8
  %61 = sext i32 %60 to i64
  %62 = getelementptr inbounds %union.Floor, ptr %59, i64 %61
  store ptr %62, ptr %20, align 8, !tbaa !18
  call void @llvm.lifetime.start.p0(i64 4, ptr %21) #11
  call void @llvm.lifetime.start.p0(i64 4, ptr %22) #11
  call void @llvm.lifetime.start.p0(i64 4, ptr %23) #11
  store i32 0, ptr %23, align 4, !tbaa !8
  call void @llvm.lifetime.start.p0(i64 4, ptr %24) #11
  %63 = load ptr, ptr %14, align 8, !tbaa !62
  %64 = getelementptr inbounds i16, ptr %63, i64 0
  %65 = load i16, ptr %64, align 2, !tbaa !45
  %66 = sext i16 %65 to i32
  %67 = load ptr, ptr %20, align 8, !tbaa !18
  %68 = getelementptr inbounds nuw %struct.Floor1, ptr %67, i32 0, i32 9
  %69 = load i8, ptr %68, align 4, !tbaa !161
  %70 = zext i8 %69 to i32
  %71 = mul nsw i32 %66, %70
  store i32 %71, ptr %24, align 4, !tbaa !8
  store i32 1, ptr %22, align 4, !tbaa !8
  br label %72

72:                                               ; preds = %126, %56
  %73 = load i32, ptr %22, align 4, !tbaa !8
  %74 = load ptr, ptr %20, align 8, !tbaa !18
  %75 = getelementptr inbounds nuw %struct.Floor1, ptr %74, i32 0, i32 11
  %76 = load i32, ptr %75, align 4, !tbaa !163
  %77 = icmp slt i32 %73, %76
  br i1 %77, label %78, label %129

78:                                               ; preds = %72
  %79 = load ptr, ptr %20, align 8, !tbaa !18
  %80 = getelementptr inbounds nuw %struct.Floor1, ptr %79, i32 0, i32 7
  %81 = load i32, ptr %22, align 4, !tbaa !8
  %82 = sext i32 %81 to i64
  %83 = getelementptr inbounds [250 x i8], ptr %80, i64 0, i64 %82
  %84 = load i8, ptr %83, align 1, !tbaa !30
  %85 = zext i8 %84 to i32
  store i32 %85, ptr %21, align 4, !tbaa !8
  %86 = load ptr, ptr %14, align 8, !tbaa !62
  %87 = load i32, ptr %21, align 4, !tbaa !8
  %88 = sext i32 %87 to i64
  %89 = getelementptr inbounds i16, ptr %86, i64 %88
  %90 = load i16, ptr %89, align 2, !tbaa !45
  %91 = sext i16 %90 to i32
  %92 = icmp sge i32 %91, 0
  br i1 %92, label %93, label %125

93:                                               ; preds = %78
  call void @llvm.lifetime.start.p0(i64 4, ptr %25) #11
  %94 = load ptr, ptr %14, align 8, !tbaa !62
  %95 = load i32, ptr %21, align 4, !tbaa !8
  %96 = sext i32 %95 to i64
  %97 = getelementptr inbounds i16, ptr %94, i64 %96
  %98 = load i16, ptr %97, align 2, !tbaa !45
  %99 = sext i16 %98 to i32
  %100 = load ptr, ptr %20, align 8, !tbaa !18
  %101 = getelementptr inbounds nuw %struct.Floor1, ptr %100, i32 0, i32 9
  %102 = load i8, ptr %101, align 4, !tbaa !161
  %103 = zext i8 %102 to i32
  %104 = mul nsw i32 %99, %103
  store i32 %104, ptr %25, align 4, !tbaa !8
  call void @llvm.lifetime.start.p0(i64 4, ptr %26) #11
  %105 = load ptr, ptr %20, align 8, !tbaa !18
  %106 = getelementptr inbounds nuw %struct.Floor1, ptr %105, i32 0, i32 6
  %107 = load i32, ptr %21, align 4, !tbaa !8
  %108 = sext i32 %107 to i64
  %109 = getelementptr inbounds [250 x i16], ptr %106, i64 0, i64 %108
  %110 = load i16, ptr %109, align 2, !tbaa !45
  %111 = zext i16 %110 to i32
  store i32 %111, ptr %26, align 4, !tbaa !8
  %112 = load i32, ptr %23, align 4, !tbaa !8
  %113 = load i32, ptr %26, align 4, !tbaa !8
  %114 = icmp ne i32 %112, %113
  br i1 %114, label %115, label %122

115:                                              ; preds = %93
  %116 = load ptr, ptr %13, align 8, !tbaa !58
  %117 = load i32, ptr %23, align 4, !tbaa !8
  %118 = load i32, ptr %24, align 4, !tbaa !8
  %119 = load i32, ptr %26, align 4, !tbaa !8
  %120 = load i32, ptr %25, align 4, !tbaa !8
  %121 = load i32, ptr %16, align 4, !tbaa !8
  call void @draw_line(ptr noundef %116, i32 noundef %117, i32 noundef %118, i32 noundef %119, i32 noundef %120, i32 noundef %121)
  br label %122

122:                                              ; preds = %115, %93
  %123 = load i32, ptr %26, align 4, !tbaa !8
  store i32 %123, ptr %23, align 4, !tbaa !8
  %124 = load i32, ptr %25, align 4, !tbaa !8
  store i32 %124, ptr %24, align 4, !tbaa !8
  call void @llvm.lifetime.end.p0(i64 4, ptr %26) #11
  call void @llvm.lifetime.end.p0(i64 4, ptr %25) #11
  br label %125

125:                                              ; preds = %122, %78
  br label %126

126:                                              ; preds = %125
  %127 = load i32, ptr %22, align 4, !tbaa !8
  %128 = add nsw i32 %127, 1
  store i32 %128, ptr %22, align 4, !tbaa !8
  br label %72, !llvm.loop !164

129:                                              ; preds = %72
  %130 = load i32, ptr %23, align 4, !tbaa !8
  %131 = load i32, ptr %16, align 4, !tbaa !8
  %132 = icmp slt i32 %130, %131
  br i1 %132, label %133, label %154

133:                                              ; preds = %129
  %134 = load i32, ptr %23, align 4, !tbaa !8
  store i32 %134, ptr %21, align 4, !tbaa !8
  br label %135

135:                                              ; preds = %150, %133
  %136 = load i32, ptr %21, align 4, !tbaa !8
  %137 = load i32, ptr %16, align 4, !tbaa !8
  %138 = icmp slt i32 %136, %137
  br i1 %138, label %139, label %153

139:                                              ; preds = %135
  %140 = load i32, ptr %24, align 4, !tbaa !8
  %141 = sext i32 %140 to i64
  %142 = getelementptr inbounds [256 x float], ptr @inverse_db_table, i64 0, i64 %141
  %143 = load float, ptr %142, align 4, !tbaa !28
  %144 = load ptr, ptr %13, align 8, !tbaa !58
  %145 = load i32, ptr %21, align 4, !tbaa !8
  %146 = sext i32 %145 to i64
  %147 = getelementptr inbounds float, ptr %144, i64 %146
  %148 = load float, ptr %147, align 4, !tbaa !28
  %149 = fmul float %148, %143
  store float %149, ptr %147, align 4, !tbaa !28
  br label %150

150:                                              ; preds = %139
  %151 = load i32, ptr %21, align 4, !tbaa !8
  %152 = add nsw i32 %151, 1
  store i32 %152, ptr %21, align 4, !tbaa !8
  br label %135, !llvm.loop !165

153:                                              ; preds = %135
  br label %154

154:                                              ; preds = %153, %129
  call void @llvm.lifetime.end.p0(i64 4, ptr %24) #11
  call void @llvm.lifetime.end.p0(i64 4, ptr %23) #11
  call void @llvm.lifetime.end.p0(i64 4, ptr %22) #11
  call void @llvm.lifetime.end.p0(i64 4, ptr %21) #11
  call void @llvm.lifetime.end.p0(i64 8, ptr %20) #11
  br label %155

155:                                              ; preds = %154
  store i32 1, ptr %8, align 4
  store i32 1, ptr %19, align 4
  br label %156

156:                                              ; preds = %155, %53
  call void @llvm.lifetime.end.p0(i64 4, ptr %18) #11
  call void @llvm.lifetime.end.p0(i64 4, ptr %17) #11
  call void @llvm.lifetime.end.p0(i64 4, ptr %16) #11
  %157 = load i32, ptr %8, align 4
  ret i32 %157
}