; Function Attrs: nofree norecurse nosync nounwind memory(read, argmem: readwrite, inaccessiblemem: none) uwtable
define range(i32 0, 2) i32 @do_floor(ptr noundef captures(none) %0, ptr noundef readonly captures(none) %1, i32 noundef %2, i32 noundef %3, ptr noundef captures(none) %4, ptr noundef readonly captures(none) %5, ptr readnone captures(none) %6) local_unnamed_addr #15 {
  %8 = ashr i32 %3, 1
  %9 = getelementptr inbounds nuw i8, ptr %1, i64 8
  %10 = load ptr, ptr %9, align 8, !tbaa !143
  %11 = sext i32 %2 to i64
  %12 = getelementptr inbounds %struct.MappingChannel, ptr %10, i64 %11, i32 2
  %13 = load i8, ptr %12, align 1, !tbaa !145
  %14 = getelementptr inbounds nuw i8, ptr %1, i64 17
  %15 = zext i8 %13 to i64
  %16 = getelementptr inbounds nuw [15 x i8], ptr %14, i64 0, i64 %15
  %17 = load i8, ptr %16, align 1, !tbaa !23
  %18 = getelementptr inbounds nuw i8, ptr %0, i64 196
  %19 = zext i8 %17 to i64
  %20 = getelementptr inbounds nuw [64 x i16], ptr %18, i64 0, i64 %19
  %21 = load i16, ptr %20, align 2, !tbaa !36
  %22 = icmp eq i16 %21, 0
  br i1 %22, label %23, label %25

23:                                               ; preds = %7
  %24 = getelementptr inbounds nuw i8, ptr %0, i64 156
  store i32 21, ptr %24, align 4
  br label %.loopexit

25:                                               ; preds = %7
  %26 = getelementptr inbounds nuw i8, ptr %0, i64 328
  %27 = load ptr, ptr %26, align 8, !tbaa !147
  %28 = getelementptr inbounds nuw %union.Floor, ptr %27, i64 %19
  %29 = load i16, ptr %5, align 2, !tbaa !36
  %30 = sext i16 %29 to i32
  %31 = getelementptr inbounds nuw i8, ptr %28, i64 1588
  %32 = load i8, ptr %31, align 4, !tbaa !148
  %33 = zext i8 %32 to i32
  %34 = mul nsw i32 %33, %30
  %35 = getelementptr inbounds nuw i8, ptr %28, i64 1592
  %36 = load i32, ptr %35, align 4, !tbaa !150
  %37 = icmp sgt i32 %36, 1
  br i1 %37, label %.lr.ph, label %._crit_edge

.lr.ph:                                           ; preds = %25
  %38 = getelementptr inbounds nuw i8, ptr %28, i64 838
  %39 = getelementptr inbounds nuw i8, ptr %28, i64 338
  %wide.trip.count = zext nneg i32 %36 to i64
  br label %40

40:                                               ; preds = %.lr.ph, %draw_line.exit
  %indvars.iv = phi i64 [ 1, %.lr.ph ], [ %indvars.iv.next, %draw_line.exit ]
  %.04353 = phi i32 [ %34, %.lr.ph ], [ %.1, %draw_line.exit ]
  %.04452 = phi i32 [ 0, %.lr.ph ], [ %.145, %draw_line.exit ]
  %41 = getelementptr inbounds nuw [250 x i8], ptr %38, i64 0, i64 %indvars.iv
  %42 = load i8, ptr %41, align 1, !tbaa !23
  %43 = zext i8 %42 to i64
  %44 = getelementptr inbounds nuw i16, ptr %5, i64 %43
  %45 = load i16, ptr %44, align 2, !tbaa !36
  %46 = icmp sgt i16 %45, -1
  br i1 %46, label %47, label %draw_line.exit

47:                                               ; preds = %40
  %48 = zext nneg i16 %45 to i32
  %49 = mul nuw nsw i32 %48, %33
  %50 = getelementptr inbounds nuw [250 x i16], ptr %39, i64 0, i64 %43
  %51 = load i16, ptr %50, align 2, !tbaa !36
  %52 = zext i16 %51 to i32
  %.not = icmp eq i32 %.04452, %52
  br i1 %.not, label %draw_line.exit, label %53

53:                                               ; preds = %47
  %54 = sub nsw i32 %49, %.04353
  %55 = sub nsw i32 %52, %.04452
  %56 = tail call i32 @llvm.abs.i32(i32 %54, i1 true)
  %57 = sdiv i32 %54, %55
  %.inv.i = icmp sgt i32 %54, -1
  %.0.v.i = select i1 %.inv.i, i32 1, i32 -1
  %58 = tail call i32 @llvm.abs.i32(i32 %57, i1 true)
  %59 = mul nsw i32 %58, %55
  %60 = sub nsw i32 %56, %59
  %.043.i = tail call i32 @llvm.smin.i32(i32 %52, i32 %8)
  %61 = icmp slt i32 %.04452, %.043.i
  br i1 %61, label %62, label %draw_line.exit

62:                                               ; preds = %53
  %63 = and i32 %.04353, 255
  %64 = zext nneg i32 %63 to i64
  %65 = getelementptr inbounds nuw [256 x float], ptr @inverse_db_table, i64 0, i64 %64
  %66 = load float, ptr %65, align 4, !tbaa !48
  %67 = zext nneg i32 %.04452 to i64
  %68 = getelementptr inbounds nuw float, ptr %4, i64 %67
  %69 = load float, ptr %68, align 4, !tbaa !48
  %70 = fmul float %66, %69
  store float %70, ptr %68, align 4, !tbaa !48
  %.04250.i = add nuw nsw i32 %.04452, 1
  %71 = icmp slt i32 %.04250.i, %.043.i
  br i1 %71, label %.lr.ph.preheader.i, label %draw_line.exit

.lr.ph.preheader.i:                               ; preds = %62
  %72 = add nuw nsw i64 %67, 1
  br label %.lr.ph.i

.lr.ph.i:                                         ; preds = %.lr.ph.i, %.lr.ph.preheader.i
  %indvars.iv.i = phi i64 [ %72, %.lr.ph.preheader.i ], [ %indvars.iv.next.i, %.lr.ph.i ]
  %.03952.i = phi i32 [ 0, %.lr.ph.preheader.i ], [ %.1.i, %.lr.ph.i ]
  %.04051.i = phi i32 [ %.04353, %.lr.ph.preheader.i ], [ %.141.i, %.lr.ph.i ]
  %73 = add nsw i32 %.03952.i, %60
  %.not.i = icmp slt i32 %73, %55
  %.0.i = select i1 %.not.i, i32 0, i32 %.0.v.i
  %74 = select i1 %.not.i, i32 0, i32 %55
  %.1.i = sub nsw i32 %73, %74
  %.0.pn.i = add i32 %.04051.i, %57
  %.141.i = add i32 %.0.pn.i, %.0.i
  %75 = and i32 %.141.i, 255
  %76 = zext nneg i32 %75 to i64
  %77 = getelementptr inbounds nuw [256 x float], ptr @inverse_db_table, i64 0, i64 %76
  %78 = load float, ptr %77, align 4, !tbaa !48
  %79 = getelementptr inbounds nuw float, ptr %4, i64 %indvars.iv.i
  %80 = load float, ptr %79, align 4, !tbaa !48
  %81 = fmul float %78, %80
  store float %81, ptr %79, align 4, !tbaa !48
  %indvars.iv.next.i = add nuw nsw i64 %indvars.iv.i, 1
  %lftr.wideiv.i = trunc i64 %indvars.iv.next.i to i32
  %exitcond.not.i = icmp eq i32 %.043.i, %lftr.wideiv.i
  br i1 %exitcond.not.i, label %draw_line.exit, label %.lr.ph.i, !llvm.loop !151

draw_line.exit:                                   ; preds = %.lr.ph.i, %62, %53, %47, %40
  %.145 = phi i32 [ %.04452, %40 ], [ %.04452, %47 ], [ %52, %53 ], [ %52, %62 ], [ %52, %.lr.ph.i ]
  %.1 = phi i32 [ %.04353, %40 ], [ %49, %47 ], [ %49, %53 ], [ %49, %62 ], [ %49, %.lr.ph.i ]
  %indvars.iv.next = add nuw nsw i64 %indvars.iv, 1
  %exitcond.not = icmp eq i64 %indvars.iv.next, %wide.trip.count
  br i1 %exitcond.not, label %._crit_edge, label %40, !llvm.loop !152

._crit_edge:                                      ; preds = %draw_line.exit, %25
  %.044.lcssa = phi i32 [ 0, %25 ], [ %.145, %draw_line.exit ]
  %.043.lcssa = phi i32 [ %34, %25 ], [ %.1, %draw_line.exit ]
  %82 = icmp slt i32 %.044.lcssa, %8
  br i1 %82, label %.preheader, label %.loopexit

.preheader:                                       ; preds = %._crit_edge
  %83 = sext i32 %.043.lcssa to i64
  %84 = getelementptr inbounds [256 x float], ptr @inverse_db_table, i64 0, i64 %83
  %85 = zext nneg i32 %.044.lcssa to i64
  %wide.trip.count60 = zext i32 %8 to i64
  br label %86

86:                                               ; preds = %.preheader, %86
  %indvars.iv57 = phi i64 [ %85, %.preheader ], [ %indvars.iv.next58, %86 ]
  %87 = load float, ptr %84, align 4, !tbaa !48
  %88 = getelementptr inbounds nuw float, ptr %4, i64 %indvars.iv57
  %89 = load float, ptr %88, align 4, !tbaa !48
  %90 = fmul float %87, %89
  store float %90, ptr %88, align 4, !tbaa !48
  %indvars.iv.next58 = add nuw nsw i64 %indvars.iv57, 1
  %exitcond61.not = icmp eq i64 %indvars.iv.next58, %wide.trip.count60
  br i1 %exitcond61.not, label %.loopexit, label %86, !llvm.loop !153

.loopexit:                                        ; preds = %86, %._crit_edge, %23
  %.0 = phi i32 [ 0, %23 ], [ 1, %._crit_edge ], [ 1, %86 ]
  ret i32 %.0
}